target datalayout = "e-m:e-p270:32:32-p271:32:32-p272:64:64-i64:64-i128:128-f80:128-n8:16:32:64-S128"
target triple = "x86_64-pc-linux-gnu"

%struct._proto_node = type { ptr, ptr, ptr, ptr, ptr, ptr, ptr }
%struct.field_info = type { ptr, i32, i32, i32, i32, i32, i32, ptr, ptr, ptr, i32, i32 }

@hf_qsig_ie_type = internal global i32 0, align 4
@hf_qsig_ie_len = internal global i32 0, align 4
@hf_qsig_ie_data = internal global i32 0, align 4
@hf_qsig_tc = internal global i32 0, align 4
@hf_qsig_pc = internal global i32 0, align 4
@ett_qsig_ie = internal global i32 0, align 4
@proto_qsig = internal global i32 0, align 4
@qsig_str_ie_type = internal global [8 x ptr] [ptr null, ptr null, ptr null, ptr null, ptr @qsig_str_ie_type_cs4, ptr @qsig_str_ie_type_cs5, ptr null, ptr null], align 16
@.str.2074 = private unnamed_addr constant [17 x i8] c"unknown (0x%02X)\00", align 1
@hf_qsig_ie_type_arr = internal global [8 x ptr] [ptr null, ptr null, ptr null, ptr null, ptr @hf_qsig_ie_type_cs4, ptr @hf_qsig_ie_type_cs5, ptr null, ptr null], align 16

; Function Attrs: null_pointer_is_valid sspstrong uwtable
define internal i32 @dissect_qsig_party_category_ie(ptr noundef %0, i32 noundef %1, ptr noundef %2, ptr noundef %3, i32 noundef %4) #0 {
  %6 = alloca ptr, align 8
  %7 = alloca i32, align 4
  %8 = alloca ptr, align 8
  %9 = alloca ptr, align 8
  %10 = alloca i32, align 4
  store ptr %0, ptr %6, align 8
  store i32 %1, ptr %7, align 4
  store ptr %2, ptr %8, align 8
  store ptr %3, ptr %9, align 8
  store i32 %4, ptr %10, align 4
  %11 = load ptr, ptr %9, align 8
  %12 = load i32, ptr @hf_qsig_pc, align 4
  %13 = load ptr, ptr %6, align 8
  %14 = load i32, ptr %7, align 4
  %15 = call ptr @proto_tree_add_item(ptr noundef %11, i32 noundef %12, ptr noundef %13, i32 noundef %14, i32 noundef 1, i32 noundef 0)
  %16 = load i32, ptr %7, align 4
  %17 = add i32 %16, 1
  store i32 %17, ptr %7, align 4
  %18 = load i32, ptr %7, align 4
  ret i32 %18
}

; Function Attrs: null_pointer_is_valid sspstrong uwtable
define internal i32 @dissect_qsig_transit_counter_ie(ptr noundef %0, i32 noundef %1, ptr noundef %2, ptr noundef %3, i32 noundef %4) #0 {
  %6 = alloca ptr, align 8
  %7 = alloca i32, align 4
  %8 = alloca ptr, align 8
  %9 = alloca ptr, align 8
  %10 = alloca i32, align 4
  store ptr %0, ptr %6, align 8
  store i32 %1, ptr %7, align 4
  store ptr %2, ptr %8, align 8
  store ptr %3, ptr %9, align 8
  store i32 %4, ptr %10, align 4
  %11 = load ptr, ptr %9, align 8
  %12 = load i32, ptr @hf_qsig_tc, align 4
  %13 = load ptr, ptr %6, align 8
  %14 = load i32, ptr %7, align 4
  %15 = call ptr @proto_tree_add_item(ptr noundef %11, i32 noundef %12, ptr noundef %13, i32 noundef %14, i32 noundef 1, i32 noundef 0)
  %16 = load i32, ptr %7, align 4
  %17 = add i32 %16, 1
  store i32 %17, ptr %7, align 4
  %18 = load i32, ptr %7, align 4
  ret i32 %18
}

; Function Attrs: inlinehint nounwind null_pointer_is_valid sspstrong uwtable
define internal void @proto_item_set_hidden(ptr noundef %0) #5 {
  %2 = alloca ptr, align 8
  store ptr %0, ptr %2, align 8
  %3 = load ptr, ptr %2, align 8
  %4 = icmp ne ptr %3, null
  br i1 %4, label %5, label %24

5:                                                ; preds = %1
  br label %6

6:                                                ; preds = %5
  %7 = load ptr, ptr %2, align 8
  %8 = getelementptr inbounds nuw %struct._proto_node, ptr %7, i32 0, i32 5
  %9 = load ptr, ptr %8, align 8
  %10 = icmp ne ptr %9, null
  br i1 %10, label %11, label %22

11:                                               ; preds = %6
  %12 = load ptr, ptr %2, align 8
  %13 = getelementptr inbounds nuw %struct._proto_node, ptr %12, i32 0, i32 5
  %14 = load ptr, ptr %13, align 8
  %15 = getelementptr inbounds nuw %struct.field_info, ptr %14, i32 0, i32 6
  %16 = load i32, ptr %15, align 4
  %17 = or i32 %16, 1
  %18 = load ptr, ptr %2, align 8
  %19 = getelementptr inbounds nuw %struct._proto_node, ptr %18, i32 0, i32 5
  %20 = load ptr, ptr %19, align 8
  %21 = getelementptr inbounds nuw %struct.field_info, ptr %20, i32 0, i32 6
  store i32 %17, ptr %21, align 4
  br label %22

22:                                               ; preds = %11, %6
  br label %23

23:                                               ; preds = %22
  br label %24

24:                                               ; preds = %23, %1
  ret void
}

; Function Attrs: null_pointer_is_valid sspstrong uwtable
define internal void @dissect_qsig_ie(ptr noundef %0, ptr noundef %1, ptr noundef %2, i32 noundef %3) #0 {
  %5 = alloca ptr, align 8
  %6 = alloca ptr, align 8
  %7 = alloca ptr, align 8
  %8 = alloca i32, align 4
  %9 = alloca i32, align 4
  %10 = alloca ptr, align 8
  %11 = alloca ptr, align 8
  %12 = alloca ptr, align 8
  %13 = alloca i8, align 1
  %14 = alloca i8, align 1
  %15 = alloca i32, align 4
  store ptr %0, ptr %5, align 8
  store ptr %1, ptr %6, align 8
  store ptr %2, ptr %7, align 8
  store i32 %3, ptr %8, align 4
  call void @llvm.lifetime.start.p0(i64 4, ptr %9) #6
  call void @llvm.lifetime.start.p0(i64 8, ptr %10) #6
  call void @llvm.lifetime.start.p0(i64 8, ptr %11) #6
  call void @llvm.lifetime.start.p0(i64 8, ptr %12) #6
  call void @llvm.lifetime.start.p0(i64 1, ptr %13) #6
  call void @llvm.lifetime.start.p0(i64 1, ptr %14) #6
  store i32 0, ptr %9, align 4
  %16 = load ptr, ptr %7, align 8
  %17 = load i32, ptr @proto_qsig, align 4
  %18 = load ptr, ptr %5, align 8
  %19 = load i32, ptr %9, align 4
  %20 = call ptr @proto_tree_add_item(ptr noundef %16, i32 noundef %17, ptr noundef %18, i32 noundef %19, i32 noundef -1, i32 noundef 0)
  store ptr %20, ptr %10, align 8
  %21 = load ptr, ptr %10, align 8
  call void @proto_item_set_hidden(ptr noundef %21)
  %22 = load ptr, ptr %5, align 8
  %23 = load i32, ptr %9, align 4
  %24 = call zeroext i8 @tvb_get_uint8(ptr noundef %22, i32 noundef %23)
  store i8 %24, ptr %13, align 1
  %25 = load ptr, ptr %5, align 8
  %26 = load i32, ptr %9, align 4
  %27 = add i32 %26, 1
  %28 = call zeroext i8 @tvb_get_uint8(ptr noundef %25, i32 noundef %27)
  store i8 %28, ptr %14, align 1
  %29 = load ptr, ptr %7, align 8
  %30 = load ptr, ptr %5, align 8
  %31 = load i32, ptr %9, align 4
  %32 = load i32, ptr @ett_qsig_ie, align 4
  %33 = load i8, ptr %13, align 1
  %34 = zext i8 %33 to i32
  %35 = load i32, ptr %8, align 4
  %36 = sext i32 %35 to i64
  %37 = getelementptr [8 x ptr], ptr @qsig_str_ie_type, i64 0, i64 %36
  %38 = load ptr, ptr %37, align 8
  %39 = call ptr @val_to_str(i32 noundef %34, ptr noundef %38, ptr noundef @.str.2074)
  %40 = call ptr @proto_tree_add_subtree(ptr noundef %29, ptr noundef %30, i32 noundef %31, i32 noundef -1, i32 noundef %32, ptr noundef null, ptr noundef %39)
  store ptr %40, ptr %12, align 8
  %41 = load ptr, ptr %12, align 8
  %42 = load i32, ptr %8, align 4
  %43 = sext i32 %42 to i64
  %44 = getelementptr [8 x ptr], ptr @hf_qsig_ie_type_arr, i64 0, i64 %43
  %45 = load ptr, ptr %44, align 8
  %46 = load i32, ptr %45, align 4
  %47 = load ptr, ptr %5, align 8
  %48 = load i32, ptr %9, align 4
  %49 = call ptr @proto_tree_add_item(ptr noundef %41, i32 noundef %46, ptr noundef %47, i32 noundef %48, i32 noundef 1, i32 noundef 0)
  %50 = load ptr, ptr %12, align 8
  %51 = load i32, ptr @hf_qsig_ie_type, align 4
  %52 = load ptr, ptr %5, align 8
  %53 = load i32, ptr %9, align 4
  %54 = call ptr @proto_tree_add_item(ptr noundef %50, i32 noundef %51, ptr noundef %52, i32 noundef %53, i32 noundef 1, i32 noundef 0)
  store ptr %54, ptr %11, align 8
  %55 = load ptr, ptr %11, align 8
  call void @proto_item_set_hidden(ptr noundef %55)
  %56 = load ptr, ptr %12, align 8
  %57 = load i32, ptr @hf_qsig_ie_len, align 4
  %58 = load ptr, ptr %5, align 8
  %59 = load i32, ptr %9, align 4
  %60 = add i32 %59, 1
  %61 = call ptr @proto_tree_add_item(ptr noundef %56, i32 noundef %57, ptr noundef %58, i32 noundef %60, i32 noundef 1, i32 noundef 0)
  %62 = load i32, ptr %9, align 4
  %63 = add i32 %62, 2
  store i32 %63, ptr %9, align 4
  %64 = load ptr, ptr %5, align 8
  %65 = load i32, ptr %9, align 4
  %66 = call i32 @tvb_reported_length_remaining(ptr noundef %64, i32 noundef %65)
  %67 = icmp sle i32 %66, 0
  br i1 %67, label %68, label %69

68:                                               ; preds = %4
  store i32 1, ptr %15, align 4
  br label %109

69:                                               ; preds = %4
  %70 = load i32, ptr %8, align 4
  %71 = shl i32 %70, 8
  %72 = load i8, ptr %13, align 1
  %73 = zext i8 %72 to i32
  %74 = or i32 %71, %73
  switch i32 %74, label %91 [
    i32 1073, label %75
    i32 1330, label %83
  ]

75:                                               ; preds = %69
  %76 = load ptr, ptr %5, align 8
  %77 = load i32, ptr %9, align 4
  %78 = load ptr, ptr %6, align 8
  %79 = load ptr, ptr %12, align 8
  %80 = load i8, ptr %14, align 1
  %81 = zext i8 %80 to i32
  %82 = call i32 @dissect_qsig_transit_counter_ie(ptr noundef %76, i32 noundef %77, ptr noundef %78, ptr noundef %79, i32 noundef %81)
  br label %108

83:                                               ; preds = %69
  %84 = load ptr, ptr %5, align 8
  %85 = load i32, ptr %9, align 4
  %86 = load ptr, ptr %6, align 8
  %87 = load ptr, ptr %12, align 8
  %88 = load i8, ptr %14, align 1
  %89 = zext i8 %88 to i32
  %90 = call i32 @dissect_qsig_party_category_ie(ptr noundef %84, i32 noundef %85, ptr noundef %86, ptr noundef %87, i32 noundef %89)
  br label %108

91:                                               ; preds = %69
  %92 = load i8, ptr %14, align 1
  %93 = zext i8 %92 to i32
  %94 = icmp sgt i32 %93, 0
  br i1 %94, label %95, label %107

95:                                               ; preds = %91
  %96 = load ptr, ptr %7, align 8
  %97 = icmp ne ptr %96, null
  br i1 %97, label %98, label %106

98:                                               ; preds = %95
  %99 = load ptr, ptr %12, align 8
  %100 = load i32, ptr @hf_qsig_ie_data, align 4
  %101 = load ptr, ptr %5, align 8
  %102 = load i32, ptr %9, align 4
  %103 = load i8, ptr %14, align 1
  %104 = zext i8 %103 to i32
  %105 = call ptr @proto_tree_add_item(ptr noundef %99, i32 noundef %100, ptr noundef %101, i32 noundef %102, i32 noundef %104, i32 noundef 0)
  br label %106

106:                                              ; preds = %98, %95
  br label %107

107:                                              ; preds = %106, %91
  br label %108

108:                                              ; preds = %107, %83, %75
  store i32 0, ptr %15, align 4
  br label %109

109:                                              ; preds = %108, %68
  call void @llvm.lifetime.end.p0(i64 1, ptr %14) #6
  call void @llvm.lifetime.end.p0(i64 1, ptr %13) #6
  call void @llvm.lifetime.end.p0(i64 8, ptr %12) #6
  call void @llvm.lifetime.end.p0(i64 8, ptr %11) #6
  call void @llvm.lifetime.end.p0(i64 8, ptr %10) #6
  call void @llvm.lifetime.end.p0(i64 4, ptr %9) #6
  %110 = load i32, ptr %15, align 4
  switch i32 %110, label %112 [
    i32 0, label %111
    i32 1, label %111
  ]

111:                                              ; preds = %109, %109
  ret void

112:                                              ; preds = %109
  unreachable
}