; Function Attrs: null_pointer_is_valid sspstrong uwtable
define internal fastcc void @dissect_qsig_ie(ptr noundef %0, ptr noundef %1, i32 noundef range(i32 4, 6) %2) unnamed_addr #0 {
  %4 = load i32, ptr @proto_qsig, align 4
  %5 = tail call ptr @proto_tree_add_item(ptr noundef %1, i32 noundef %4, ptr noundef %0, i32 noundef 0, i32 noundef -1, i32 noundef 0)
  %.not.i = icmp eq ptr %5, null
  br i1 %.not.i, label %proto_item_set_hidden.exit, label %6

6:                                                ; preds = %3
  %7 = getelementptr inbounds nuw i8, ptr %5, i64 40
  %8 = load ptr, ptr %7, align 8
  %.not5.i = icmp eq ptr %8, null
  br i1 %.not5.i, label %proto_item_set_hidden.exit, label %9

9:                                                ; preds = %6
  %10 = getelementptr inbounds nuw i8, ptr %8, i64 28
  %11 = load i32, ptr %10, align 4
  %12 = or i32 %11, 1
  store i32 %12, ptr %10, align 4
  br label %proto_item_set_hidden.exit

proto_item_set_hidden.exit:                       ; preds = %3, %6, %9
  %13 = tail call zeroext i8 @tvb_get_uint8(ptr noundef %0, i32 noundef 0)
  %14 = tail call zeroext i8 @tvb_get_uint8(ptr noundef %0, i32 noundef 1)
  %15 = load i32, ptr @ett_qsig_ie, align 4
  %16 = zext i8 %13 to i32
  %17 = zext nneg i32 %2 to i64
  %18 = getelementptr [8 x ptr], ptr @qsig_str_ie_type, i64 0, i64 %17
  %19 = load ptr, ptr %18, align 8
  %20 = tail call ptr @val_to_str(i32 noundef %16, ptr noundef %19, ptr noundef nonnull @.str.2074)
  %21 = tail call ptr @proto_tree_add_subtree(ptr noundef %1, ptr noundef %0, i32 noundef 0, i32 noundef -1, i32 noundef %15, ptr noundef null, ptr noundef %20)
  %22 = getelementptr [8 x ptr], ptr @hf_qsig_ie_type_arr, i64 0, i64 %17
  %23 = load ptr, ptr %22, align 8
  %24 = load i32, ptr %23, align 4
  %25 = tail call ptr @proto_tree_add_item(ptr noundef %21, i32 noundef %24, ptr noundef %0, i32 noundef 0, i32 noundef 1, i32 noundef 0)
  %26 = load i32, ptr @hf_qsig_ie_type, align 4
  %27 = tail call ptr @proto_tree_add_item(ptr noundef %21, i32 noundef %26, ptr noundef %0, i32 noundef 0, i32 noundef 1, i32 noundef 0)
  %.not.i45 = icmp eq ptr %27, null
  br i1 %.not.i45, label %proto_item_set_hidden.exit47, label %28

28:                                               ; preds = %proto_item_set_hidden.exit
  %29 = getelementptr inbounds nuw i8, ptr %27, i64 40
  %30 = load ptr, ptr %29, align 8
  %.not5.i46 = icmp eq ptr %30, null
  br i1 %.not5.i46, label %proto_item_set_hidden.exit47, label %31

31:                                               ; preds = %28
  %32 = getelementptr inbounds nuw i8, ptr %30, i64 28
  %33 = load i32, ptr %32, align 4
  %34 = or i32 %33, 1
  store i32 %34, ptr %32, align 4
  br label %proto_item_set_hidden.exit47

proto_item_set_hidden.exit47:                     ; preds = %proto_item_set_hidden.exit, %28, %31
  %35 = load i32, ptr @hf_qsig_ie_len, align 4
  %36 = tail call ptr @proto_tree_add_item(ptr noundef %21, i32 noundef %35, ptr noundef %0, i32 noundef 1, i32 noundef 1, i32 noundef 0)
  %37 = tail call i32 @tvb_reported_length_remaining(ptr noundef %0, i32 noundef 2)
  %38 = icmp slt i32 %37, 1
  br i1 %38, label %50, label %39

39:                                               ; preds = %proto_item_set_hidden.exit47
  %40 = shl nuw nsw i32 %2, 8
  %41 = or disjoint i32 %40, %16
  switch i32 %41, label %43 [
    i32 1073, label %.sink.split
    i32 1330, label %42
  ]

42:                                               ; preds = %39
  br label %.sink.split

43:                                               ; preds = %39
  %44 = icmp ne i8 %14, 0
  %45 = icmp ne ptr %1, null
  %or.cond = and i1 %45, %44
  br i1 %or.cond, label %46, label %50

46:                                               ; preds = %43
  %47 = zext i8 %14 to i32
  br label %.sink.split

.sink.split:                                      ; preds = %39, %46, %42
  %hf_qsig_tc.sink = phi ptr [ @hf_qsig_pc, %42 ], [ @hf_qsig_ie_data, %46 ], [ @hf_qsig_tc, %39 ]
  %.sink1 = phi i32 [ 1, %42 ], [ %47, %46 ], [ 1, %39 ]
  %48 = load i32, ptr %hf_qsig_tc.sink, align 4
  %49 = tail call ptr @proto_tree_add_item(ptr noundef %21, i32 noundef %48, ptr noundef %0, i32 noundef 2, i32 noundef %.sink1, i32 noundef 0)
  br label %50

50:                                               ; preds = %.sink.split, %43, %proto_item_set_hidden.exit47
  ret void
}